target datalayout = "e-m:e-p270:32:32-p271:32:32-p272:64:64-i64:64-i128:128-f80:128-n8:16:32:64-S128"
target triple = "x86_64-pc-linux-gnu"

%"class.(anonymous namespace)::ModelledPHI" = type { %"class.llvm::SmallVector.141", %"class.llvm::SmallVector.96" }
%"class.llvm::SmallVector.141" = type { %"class.llvm::SmallVectorImpl.142", %"struct.llvm::SmallVectorStorage.145" }
%"class.llvm::SmallVectorImpl.142" = type { %"class.llvm::SmallVectorTemplateBase.143" }
%"class.llvm::SmallVectorTemplateBase.143" = type { %"class.llvm::SmallVectorTemplateCommon.144" }
%"class.llvm::SmallVectorTemplateCommon.144" = type { %"class.llvm::SmallVectorBase" }
%"class.llvm::SmallVectorBase" = type { ptr, i32, i32 }
%"struct.llvm::SmallVectorStorage.145" = type { [32 x i8] }
%"class.llvm::SmallVector.96" = type { %"class.llvm::SmallVectorImpl.46", %"struct.llvm::SmallVectorStorage.97" }
%"class.llvm::SmallVectorImpl.46" = type { %"class.llvm::SmallVectorTemplateBase.47" }
%"class.llvm::SmallVectorTemplateBase.47" = type { %"class.llvm::SmallVectorTemplateCommon.48" }
%"class.llvm::SmallVectorTemplateCommon.48" = type { %"class.llvm::SmallVectorBase" }
%"struct.llvm::SmallVectorStorage.97" = type { [32 x i8] }
%"class.llvm::DenseMap.116" = type <{ ptr, i32, i32, i32, [4 x i8] }>
%"class.llvm::detail::DenseSetPair.146" = type { %"class.(anonymous namespace)::ModelledPHI" }

; Function Attrs: mustprogress nounwind uwtable
define linkonce_odr hidden noundef ptr @_ZNK4llvm25SmallVectorTemplateCommonIPNS_5ValueEvE10getFirstElEv(ptr noundef nonnull align 8 dereferenceable(16) %0) #1 comdat align 2 {
  %2 = alloca ptr, align 8
  store ptr %0, ptr %2, align 8
  %3 = load ptr, ptr %2, align 8
  %4 = getelementptr inbounds i8, ptr %3, i64 16
  ret ptr %4
}

; Function Attrs: mustprogress nounwind uwtable
define linkonce_odr hidden noundef ptr @_ZNK4llvm25SmallVectorTemplateCommonIPNS_10BasicBlockEvE10getFirstElEv(ptr noundef nonnull align 8 dereferenceable(16) %0) #1 comdat align 2 {
  %2 = alloca ptr, align 8
  store ptr %0, ptr %2, align 8
  %3 = load ptr, ptr %2, align 8
  %4 = getelementptr inbounds i8, ptr %3, i64 16
  ret ptr %4
}

; Function Attrs: mustprogress nounwind uwtable
define linkonce_odr hidden noundef zeroext i1 @_ZNK4llvm25SmallVectorTemplateCommonIPNS_5ValueEvE7isSmallEv(ptr noundef nonnull align 8 dereferenceable(16) %0) #1 comdat align 2 {
  %2 = alloca ptr, align 8
  store ptr %0, ptr %2, align 8
  %3 = load ptr, ptr %2, align 8
  %4 = getelementptr inbounds nuw %"class.llvm::SmallVectorBase", ptr %3, i32 0, i32 0
  %5 = load ptr, ptr %4, align 8
  %6 = call noundef ptr @_ZNK4llvm25SmallVectorTemplateCommonIPNS_5ValueEvE10getFirstElEv(ptr noundef nonnull align 8 dereferenceable(16) %3)
  %7 = icmp eq ptr %5, %6
  ret i1 %7
}

; Function Attrs: mustprogress nounwind uwtable
define linkonce_odr hidden noundef zeroext i1 @_ZNK4llvm25SmallVectorTemplateCommonIPNS_10BasicBlockEvE7isSmallEv(ptr noundef nonnull align 8 dereferenceable(16) %0) #1 comdat align 2 {
  %2 = alloca ptr, align 8
  store ptr %0, ptr %2, align 8
  %3 = load ptr, ptr %2, align 8
  %4 = getelementptr inbounds nuw %"class.llvm::SmallVectorBase", ptr %3, i32 0, i32 0
  %5 = load ptr, ptr %4, align 8
  %6 = call noundef ptr @_ZNK4llvm25SmallVectorTemplateCommonIPNS_10BasicBlockEvE10getFirstElEv(ptr noundef nonnull align 8 dereferenceable(16) %3)
  %7 = icmp eq ptr %5, %6
  ret i1 %7
}

; Function Attrs: mustprogress nounwind uwtable
define linkonce_odr hidden void @_ZN4llvm15SmallVectorImplIPNS_5ValueEED2Ev(ptr noundef nonnull align 8 dereferenceable(16) %0) unnamed_addr #1 comdat align 2 {
  %2 = alloca ptr, align 8
  store ptr %0, ptr %2, align 8
  %3 = load ptr, ptr %2, align 8
  %4 = call noundef zeroext i1 @_ZNK4llvm25SmallVectorTemplateCommonIPNS_5ValueEvE7isSmallEv(ptr noundef nonnull align 8 dereferenceable(16) %3)
  br i1 %4, label %7, label %5

5:                                                ; preds = %1
  %6 = call noundef ptr @_ZN4llvm25SmallVectorTemplateCommonIPNS_5ValueEvE5beginEv(ptr noundef nonnull align 8 dereferenceable(16) %3)
  call void @free(ptr noundef %6) #9
  br label %7

7:                                                ; preds = %5, %1
  ret void
}

; Function Attrs: mustprogress nounwind uwtable
define linkonce_odr hidden void @_ZN4llvm23SmallVectorTemplateBaseIPNS_5ValueELb1EE13destroy_rangeEPS2_S4_(ptr noundef %0, ptr noundef %1) #1 comdat align 2 {
  %3 = alloca ptr, align 8
  %4 = alloca ptr, align 8
  store ptr %0, ptr %3, align 8
  store ptr %1, ptr %4, align 8
  ret void
}

; Function Attrs: mustprogress nounwind uwtable
define linkonce_odr hidden noundef ptr @_ZN4llvm25SmallVectorTemplateCommonIPNS_5ValueEvE3endEv(ptr noundef nonnull align 8 dereferenceable(16) %0) #1 comdat align 2 {
  %2 = alloca ptr, align 8
  store ptr %0, ptr %2, align 8
  %3 = load ptr, ptr %2, align 8
  %4 = call noundef ptr @_ZN4llvm25SmallVectorTemplateCommonIPNS_5ValueEvE5beginEv(ptr noundef nonnull align 8 dereferenceable(16) %3)
  %5 = call noundef i64 @_ZNK4llvm15SmallVectorBaseIjE4sizeEv(ptr noundef nonnull align 8 dereferenceable(16) %3)
  %6 = getelementptr inbounds ptr, ptr %4, i64 %5
  ret ptr %6
}

; Function Attrs: mustprogress nounwind uwtable
define linkonce_odr hidden noundef ptr @_ZN4llvm25SmallVectorTemplateCommonIPNS_5ValueEvE5beginEv(ptr noundef nonnull align 8 dereferenceable(16) %0) #1 comdat align 2 {
  %2 = alloca ptr, align 8
  store ptr %0, ptr %2, align 8
  %3 = load ptr, ptr %2, align 8
  %4 = getelementptr inbounds nuw %"class.llvm::SmallVectorBase", ptr %3, i32 0, i32 0
  %5 = load ptr, ptr %4, align 8
  ret ptr %5
}

; Function Attrs: mustprogress nounwind uwtable
define linkonce_odr hidden void @_ZN4llvm15SmallVectorImplIPNS_10BasicBlockEED2Ev(ptr noundef nonnull align 8 dereferenceable(16) %0) unnamed_addr #1 comdat align 2 {
  %2 = alloca ptr, align 8
  store ptr %0, ptr %2, align 8
  %3 = load ptr, ptr %2, align 8
  %4 = call noundef zeroext i1 @_ZNK4llvm25SmallVectorTemplateCommonIPNS_10BasicBlockEvE7isSmallEv(ptr noundef nonnull align 8 dereferenceable(16) %3)
  br i1 %4, label %7, label %5

5:                                                ; preds = %1
  %6 = call noundef ptr @_ZN4llvm25SmallVectorTemplateCommonIPNS_10BasicBlockEvE5beginEv(ptr noundef nonnull align 8 dereferenceable(16) %3)
  call void @free(ptr noundef %6) #9
  br label %7

7:                                                ; preds = %5, %1
  ret void
}

; Function Attrs: mustprogress nounwind uwtable
define linkonce_odr hidden void @_ZN4llvm23SmallVectorTemplateBaseIPNS_10BasicBlockELb1EE13destroy_rangeEPS2_S4_(ptr noundef %0, ptr noundef %1) #1 comdat align 2 {
  %3 = alloca ptr, align 8
  %4 = alloca ptr, align 8
  store ptr %0, ptr %3, align 8
  store ptr %1, ptr %4, align 8
  ret void
}

; Function Attrs: mustprogress nounwind uwtable
define linkonce_odr hidden noundef ptr @_ZN4llvm25SmallVectorTemplateCommonIPNS_10BasicBlockEvE3endEv(ptr noundef nonnull align 8 dereferenceable(16) %0) #1 comdat align 2 {
  %2 = alloca ptr, align 8
  store ptr %0, ptr %2, align 8
  %3 = load ptr, ptr %2, align 8
  %4 = call noundef ptr @_ZN4llvm25SmallVectorTemplateCommonIPNS_10BasicBlockEvE5beginEv(ptr noundef nonnull align 8 dereferenceable(16) %3)
  %5 = call noundef i64 @_ZNK4llvm15SmallVectorBaseIjE4sizeEv(ptr noundef nonnull align 8 dereferenceable(16) %3)
  %6 = getelementptr inbounds ptr, ptr %4, i64 %5
  ret ptr %6
}

; Function Attrs: mustprogress nounwind uwtable
define linkonce_odr hidden noundef ptr @_ZN4llvm25SmallVectorTemplateCommonIPNS_10BasicBlockEvE5beginEv(ptr noundef nonnull align 8 dereferenceable(16) %0) #1 comdat align 2 {
  %2 = alloca ptr, align 8
  store ptr %0, ptr %2, align 8
  %3 = load ptr, ptr %2, align 8
  %4 = getelementptr inbounds nuw %"class.llvm::SmallVectorBase", ptr %3, i32 0, i32 0
  %5 = load ptr, ptr %4, align 8
  ret ptr %5
}

; Function Attrs: mustprogress nounwind uwtable
define linkonce_odr hidden void @_ZN4llvm11SmallVectorIPNS_5ValueELj4EED2Ev(ptr noundef nonnull align 8 dereferenceable(48) %0) unnamed_addr #1 comdat align 2 {
  %2 = alloca ptr, align 8
  store ptr %0, ptr %2, align 8
  %3 = load ptr, ptr %2, align 8
  %4 = call noundef ptr @_ZN4llvm25SmallVectorTemplateCommonIPNS_5ValueEvE5beginEv(ptr noundef nonnull align 8 dereferenceable(16) %3)
  %5 = call noundef ptr @_ZN4llvm25SmallVectorTemplateCommonIPNS_5ValueEvE3endEv(ptr noundef nonnull align 8 dereferenceable(16) %3)
  call void @_ZN4llvm23SmallVectorTemplateBaseIPNS_5ValueELb1EE13destroy_rangeEPS2_S4_(ptr noundef %4, ptr noundef %5)
  call void @_ZN4llvm15SmallVectorImplIPNS_5ValueEED2Ev(ptr noundef nonnull align 8 dereferenceable(16) %3) #9
  ret void
}

; Function Attrs: mustprogress nounwind uwtable
define linkonce_odr hidden void @_ZN4llvm11SmallVectorIPNS_10BasicBlockELj4EED2Ev(ptr noundef nonnull align 8 dereferenceable(48) %0) unnamed_addr #1 comdat align 2 {
  %2 = alloca ptr, align 8
  store ptr %0, ptr %2, align 8
  %3 = load ptr, ptr %2, align 8
  %4 = call noundef ptr @_ZN4llvm25SmallVectorTemplateCommonIPNS_10BasicBlockEvE5beginEv(ptr noundef nonnull align 8 dereferenceable(16) %3)
  %5 = call noundef ptr @_ZN4llvm25SmallVectorTemplateCommonIPNS_10BasicBlockEvE3endEv(ptr noundef nonnull align 8 dereferenceable(16) %3)
  call void @_ZN4llvm23SmallVectorTemplateBaseIPNS_10BasicBlockELb1EE13destroy_rangeEPS2_S4_(ptr noundef %4, ptr noundef %5)
  call void @_ZN4llvm15SmallVectorImplIPNS_10BasicBlockEED2Ev(ptr noundef nonnull align 8 dereferenceable(16) %3) #9
  ret void
}

; Function Attrs: mustprogress nounwind uwtable
define internal noundef ptr @_ZNK4llvm8DenseMapIN12_GLOBAL__N_111ModelledPHIENS_6detail13DenseSetEmptyENS1_12DenseMapInfoIS2_EENS3_12DenseSetPairIS2_EEE10getBucketsEv(ptr noundef nonnull align 8 dereferenceable(20) %0) #1 align 2 {
  %2 = alloca ptr, align 8
  store ptr %0, ptr %2, align 8
  %3 = load ptr, ptr %2, align 8
  %4 = getelementptr inbounds nuw %"class.llvm::DenseMap.116", ptr %3, i32 0, i32 0
  %5 = load ptr, ptr %4, align 8
  ret ptr %5
}

; Function Attrs: mustprogress nounwind uwtable
define internal noundef i32 @_ZNK4llvm8DenseMapIN12_GLOBAL__N_111ModelledPHIENS_6detail13DenseSetEmptyENS1_12DenseMapInfoIS2_EENS3_12DenseSetPairIS2_EEE13getNumBucketsEv(ptr noundef nonnull align 8 dereferenceable(20) %0) #1 align 2 {
  %2 = alloca ptr, align 8
  store ptr %0, ptr %2, align 8
  %3 = load ptr, ptr %2, align 8
  %4 = getelementptr inbounds nuw %"class.llvm::DenseMap.116", ptr %3, i32 0, i32 3
  %5 = load i32, ptr %4, align 8
  ret i32 %5
}

; Function Attrs: mustprogress nounwind uwtable
define internal void @_ZN12_GLOBAL__N_111ModelledPHID2Ev(ptr noundef nonnull align 8 dereferenceable(96) %0) unnamed_addr #1 align 2 {
  %2 = alloca ptr, align 8
  store ptr %0, ptr %2, align 8
  %3 = load ptr, ptr %2, align 8
  %4 = getelementptr inbounds nuw %"class.(anonymous namespace)::ModelledPHI", ptr %3, i32 0, i32 1
  call void @_ZN4llvm11SmallVectorIPNS_10BasicBlockELj4EED2Ev(ptr noundef nonnull align 8 dereferenceable(48) %4) #9
  %5 = getelementptr inbounds nuw %"class.(anonymous namespace)::ModelledPHI", ptr %3, i32 0, i32 0
  call void @_ZN4llvm11SmallVectorIPNS_5ValueELj4EED2Ev(ptr noundef nonnull align 8 dereferenceable(48) %5) #9
  ret void
}

; Function Attrs: mustprogress nounwind uwtable
define internal noundef nonnull align 1 dereferenceable(1) ptr @_ZN4llvm6detail12DenseSetPairIN12_GLOBAL__N_111ModelledPHIEE9getSecondEv(ptr noundef nonnull align 8 dereferenceable(96) %0) #1 align 2 {
  %2 = alloca ptr, align 8
  store ptr %0, ptr %2, align 8
  %3 = load ptr, ptr %2, align 8
  ret ptr %3
}

; Function Attrs: mustprogress nounwind uwtable
define internal noundef nonnull align 8 dereferenceable(96) ptr @_ZN4llvm6detail12DenseSetPairIN12_GLOBAL__N_111ModelledPHIEE8getFirstEv(ptr noundef nonnull align 8 dereferenceable(96) %0) #1 align 2 {
  %2 = alloca ptr, align 8
  store ptr %0, ptr %2, align 8
  %3 = load ptr, ptr %2, align 8
  %4 = getelementptr inbounds nuw %"class.llvm::detail::DenseSetPair.146", ptr %3, i32 0, i32 0
  ret ptr %4
}

; Function Attrs: mustprogress nounwind uwtable
define internal noundef ptr @_ZN4llvm12DenseMapBaseINS_8DenseMapIN12_GLOBAL__N_111ModelledPHIENS_6detail13DenseSetEmptyENS2_12DenseMapInfoIS3_EENS4_12DenseSetPairIS3_EEEES3_S5_S7_S9_E13getBucketsEndEv(ptr noundef nonnull align 1 dereferenceable(1) %0) #1 align 2 {
  %2 = alloca ptr, align 8
  store ptr %0, ptr %2, align 8
  %3 = load ptr, ptr %2, align 8
  %4 = call noundef ptr @_ZN4llvm12DenseMapBaseINS_8DenseMapIN12_GLOBAL__N_111ModelledPHIENS_6detail13DenseSetEmptyENS2_12DenseMapInfoIS3_EENS4_12DenseSetPairIS3_EEEES3_S5_S7_S9_E10getBucketsEv(ptr noundef nonnull align 1 dereferenceable(1) %3)
  %5 = call noundef i32 @_ZNK4llvm12DenseMapBaseINS_8DenseMapIN12_GLOBAL__N_111ModelledPHIENS_6detail13DenseSetEmptyENS2_12DenseMapInfoIS3_EENS4_12DenseSetPairIS3_EEEES3_S5_S7_S9_E13getNumBucketsEv(ptr noundef nonnull align 1 dereferenceable(1) %3)
  %6 = zext i32 %5 to i64
  %7 = getelementptr inbounds %"class.llvm::detail::DenseSetPair.146", ptr %4, i64 %6
  ret ptr %7
}

; Function Attrs: mustprogress nounwind uwtable
define internal noundef ptr @_ZN4llvm12DenseMapBaseINS_8DenseMapIN12_GLOBAL__N_111ModelledPHIENS_6detail13DenseSetEmptyENS2_12DenseMapInfoIS3_EENS4_12DenseSetPairIS3_EEEES3_S5_S7_S9_E10getBucketsEv(ptr noundef nonnull align 1 dereferenceable(1) %0) #1 align 2 {
  %2 = alloca ptr, align 8
  store ptr %0, ptr %2, align 8
  %3 = load ptr, ptr %2, align 8
  %4 = call noundef ptr @_ZNK4llvm8DenseMapIN12_GLOBAL__N_111ModelledPHIENS_6detail13DenseSetEmptyENS1_12DenseMapInfoIS2_EENS3_12DenseSetPairIS2_EEE10getBucketsEv(ptr noundef nonnull align 8 dereferenceable(20) %3)
  ret ptr %4
}

; Function Attrs: mustprogress nounwind uwtable
define internal noundef i32 @_ZNK4llvm12DenseMapBaseINS_8DenseMapIN12_GLOBAL__N_111ModelledPHIENS_6detail13DenseSetEmptyENS2_12DenseMapInfoIS3_EENS4_12DenseSetPairIS3_EEEES3_S5_S7_S9_E13getNumBucketsEv(ptr noundef nonnull align 1 dereferenceable(1) %0) #1 align 2 {
  %2 = alloca ptr, align 8
  store ptr %0, ptr %2, align 8
  %3 = load ptr, ptr %2, align 8
  %4 = call noundef i32 @_ZNK4llvm8DenseMapIN12_GLOBAL__N_111ModelledPHIENS_6detail13DenseSetEmptyENS1_12DenseMapInfoIS2_EENS3_12DenseSetPairIS2_EEE13getNumBucketsEv(ptr noundef nonnull align 8 dereferenceable(20) %3)
  ret i32 %4
}

; Function Attrs: mustprogress nounwind uwtable
define internal void @_ZN4llvm12DenseMapBaseINS_8DenseMapIN12_GLOBAL__N_111ModelledPHIENS_6detail13DenseSetEmptyENS2_12DenseMapInfoIS3_EENS4_12DenseSetPairIS3_EEEES3_S5_S7_S9_E10destroyAllEv(ptr noundef nonnull align 1 dereferenceable(1) %0) #1 align 2 {
  %2 = alloca ptr, align 8
  %3 = alloca %"class.(anonymous namespace)::ModelledPHI", align 8
  %4 = alloca %"class.(anonymous namespace)::ModelledPHI", align 8
  %5 = alloca ptr, align 8
  %6 = alloca ptr, align 8
  store ptr %0, ptr %2, align 8
  %7 = load ptr, ptr %2, align 8
  %8 = call noundef i32 @_ZNK4llvm12DenseMapBaseINS_8DenseMapIN12_GLOBAL__N_111ModelledPHIENS_6detail13DenseSetEmptyENS2_12DenseMapInfoIS3_EENS4_12DenseSetPairIS3_EEEES3_S5_S7_S9_E13getNumBucketsEv(ptr noundef nonnull align 1 dereferenceable(1) %7)
  %9 = icmp eq i32 %8, 0
  br i1 %9, label %10, label %11

10:                                               ; preds = %1
  br label %36

11:                                               ; preds = %1
  call void @_ZN4llvm12DenseMapBaseINS_8DenseMapIN12_GLOBAL__N_111ModelledPHIENS_6detail13DenseSetEmptyENS2_12DenseMapInfoIS3_EENS4_12DenseSetPairIS3_EEEES3_S5_S7_S9_E11getEmptyKeyEv(ptr dead_on_unwind writable sret(%"class.(anonymous namespace)::ModelledPHI") align 8 %3)
  call void @_ZN4llvm12DenseMapBaseINS_8DenseMapIN12_GLOBAL__N_111ModelledPHIENS_6detail13DenseSetEmptyENS2_12DenseMapInfoIS3_EENS4_12DenseSetPairIS3_EEEES3_S5_S7_S9_E15getTombstoneKeyEv(ptr dead_on_unwind writable sret(%"class.(anonymous namespace)::ModelledPHI") align 8 %4)
  %12 = call noundef ptr @_ZN4llvm12DenseMapBaseINS_8DenseMapIN12_GLOBAL__N_111ModelledPHIENS_6detail13DenseSetEmptyENS2_12DenseMapInfoIS3_EENS4_12DenseSetPairIS3_EEEES3_S5_S7_S9_E10getBucketsEv(ptr noundef nonnull align 1 dereferenceable(1) %7)
  store ptr %12, ptr %5, align 8
  %13 = call noundef ptr @_ZN4llvm12DenseMapBaseINS_8DenseMapIN12_GLOBAL__N_111ModelledPHIENS_6detail13DenseSetEmptyENS2_12DenseMapInfoIS3_EENS4_12DenseSetPairIS3_EEEES3_S5_S7_S9_E13getBucketsEndEv(ptr noundef nonnull align 1 dereferenceable(1) %7)
  store ptr %13, ptr %6, align 8
  br label %14

14:                                               ; preds = %32, %11
  %15 = load ptr, ptr %5, align 8
  %16 = load ptr, ptr %6, align 8
  %17 = icmp ne ptr %15, %16
  br i1 %17, label %18, label %35

18:                                               ; preds = %14
  %19 = load ptr, ptr %5, align 8
  %20 = call noundef nonnull align 8 dereferenceable(96) ptr @_ZN4llvm6detail12DenseSetPairIN12_GLOBAL__N_111ModelledPHIEE8getFirstEv(ptr noundef nonnull align 8 dereferenceable(96) %19)
  %21 = call noundef zeroext i1 @_ZN12_GLOBAL__N_112DenseMapInfoINS_11ModelledPHIEE7isEqualERKS1_S4_(ptr noundef nonnull align 8 dereferenceable(96) %20, ptr noundef nonnull align 8 dereferenceable(96) %3)
  br i1 %21, label %29, label %22

22:                                               ; preds = %18
  %23 = load ptr, ptr %5, align 8
  %24 = call noundef nonnull align 8 dereferenceable(96) ptr @_ZN4llvm6detail12DenseSetPairIN12_GLOBAL__N_111ModelledPHIEE8getFirstEv(ptr noundef nonnull align 8 dereferenceable(96) %23)
  %25 = call noundef zeroext i1 @_ZN12_GLOBAL__N_112DenseMapInfoINS_11ModelledPHIEE7isEqualERKS1_S4_(ptr noundef nonnull align 8 dereferenceable(96) %24, ptr noundef nonnull align 8 dereferenceable(96) %4)
  br i1 %25, label %29, label %26

26:                                               ; preds = %22
  %27 = load ptr, ptr %5, align 8
  %28 = call noundef nonnull align 1 dereferenceable(1) ptr @_ZN4llvm6detail12DenseSetPairIN12_GLOBAL__N_111ModelledPHIEE9getSecondEv(ptr noundef nonnull align 8 dereferenceable(96) %27)
  br label %29

29:                                               ; preds = %26, %22, %18
  %30 = load ptr, ptr %5, align 8
  %31 = call noundef nonnull align 8 dereferenceable(96) ptr @_ZN4llvm6detail12DenseSetPairIN12_GLOBAL__N_111ModelledPHIEE8getFirstEv(ptr noundef nonnull align 8 dereferenceable(96) %30)
  call void @_ZN12_GLOBAL__N_111ModelledPHID2Ev(ptr noundef nonnull align 8 dereferenceable(96) %31) #9
  br label %32

32:                                               ; preds = %29
  %33 = load ptr, ptr %5, align 8
  %34 = getelementptr inbounds %"class.llvm::detail::DenseSetPair.146", ptr %33, i32 1
  store ptr %34, ptr %5, align 8
  br label %14, !llvm.loop !114

35:                                               ; preds = %14
  call void @_ZN12_GLOBAL__N_111ModelledPHID2Ev(ptr noundef nonnull align 8 dereferenceable(96) %4) #9
  call void @_ZN12_GLOBAL__N_111ModelledPHID2Ev(ptr noundef nonnull align 8 dereferenceable(96) %3) #9
  br label %36

36:                                               ; preds = %35, %10
  ret void
}