; Function Attrs: mustprogress nounwind uwtable
define internal fastcc void @_ZN4llvm12DenseMapBaseINS_8DenseMapIN12_GLOBAL__N_111ModelledPHIENS_6detail13DenseSetEmptyENS2_12DenseMapInfoIS3_EENS4_12DenseSetPairIS3_EEEES3_S5_S7_S9_E10destroyAllEv(ptr nocapture noundef nonnull readonly align 1 dereferenceable(1) %0) unnamed_addr #0 align 2 {
  %2 = alloca %"class.(anonymous namespace)::ModelledPHI", align 8
  %3 = alloca %"class.(anonymous namespace)::ModelledPHI", align 8
  %4 = getelementptr i8, ptr %0, i64 16
  %.val8 = load i32, ptr %4, align 8
  %5 = icmp eq i32 %.val8, 0
  br i1 %5, label %_ZN12_GLOBAL__N_111ModelledPHID2Ev.exit14, label %6

6:                                                ; preds = %1
  call fastcc void @_ZN4llvm12DenseMapBaseINS_8DenseMapIN12_GLOBAL__N_111ModelledPHIENS_6detail13DenseSetEmptyENS2_12DenseMapInfoIS3_EENS4_12DenseSetPairIS3_EEEES3_S5_S7_S9_E11getEmptyKeyEv(ptr dead_on_unwind noalias nonnull writable align 8 %2)
  call fastcc void @_ZN4llvm12DenseMapBaseINS_8DenseMapIN12_GLOBAL__N_111ModelledPHIENS_6detail13DenseSetEmptyENS2_12DenseMapInfoIS3_EENS4_12DenseSetPairIS3_EEEES3_S5_S7_S9_E15getTombstoneKeyEv(ptr dead_on_unwind noalias nonnull writable align 8 %3)
  %.val = load ptr, ptr %0, align 8
  %.val10 = load i32, ptr %4, align 8
  %7 = zext i32 %.val10 to i64
  %8 = getelementptr inbounds %"class.llvm::detail::DenseSetPair.146", ptr %.val, i64 %7
  %.not15 = icmp eq i32 %.val10, 0
  br i1 %.not15, label %._crit_edge, label %.lr.ph

.lr.ph:                                           ; preds = %6, %_ZN12_GLOBAL__N_111ModelledPHID2Ev.exit
  %.016 = phi ptr [ %24, %_ZN12_GLOBAL__N_111ModelledPHID2Ev.exit ], [ %.val, %6 ]
  %9 = call fastcc noundef zeroext i1 @_ZN12_GLOBAL__N_112DenseMapInfoINS_11ModelledPHIEE7isEqualERKS1_S4_(ptr noundef nonnull align 8 dereferenceable(96) %.016, ptr noundef nonnull align 8 dereferenceable(96) %2)
  br i1 %9, label %12, label %10

10:                                               ; preds = %.lr.ph
  %11 = call fastcc noundef zeroext i1 @_ZN12_GLOBAL__N_112DenseMapInfoINS_11ModelledPHIEE7isEqualERKS1_S4_(ptr noundef nonnull align 8 dereferenceable(96) %.016, ptr noundef nonnull align 8 dereferenceable(96) %3)
  br label %12

12:                                               ; preds = %10, %.lr.ph
  %13 = getelementptr inbounds nuw i8, ptr %.016, i64 48
  %14 = call noundef i64 @_ZNK4llvm15SmallVectorBaseIjE4sizeEv(ptr noundef nonnull align 8 dereferenceable(16) %13) #19
  %15 = load ptr, ptr %13, align 8
  %16 = getelementptr inbounds i8, ptr %.016, i64 64
  %17 = icmp eq ptr %15, %16
  br i1 %17, label %_ZN4llvm11SmallVectorIPNS_10BasicBlockELj4EED2Ev.exit.i, label %18

18:                                               ; preds = %12
  call void @free(ptr noundef %15) #19
  br label %_ZN4llvm11SmallVectorIPNS_10BasicBlockELj4EED2Ev.exit.i

_ZN4llvm11SmallVectorIPNS_10BasicBlockELj4EED2Ev.exit.i: ; preds = %18, %12
  %19 = call noundef i64 @_ZNK4llvm15SmallVectorBaseIjE4sizeEv(ptr noundef nonnull align 8 dereferenceable(16) %.016) #19
  %20 = load ptr, ptr %.016, align 8
  %21 = getelementptr inbounds i8, ptr %.016, i64 16
  %22 = icmp eq ptr %20, %21
  br i1 %22, label %_ZN12_GLOBAL__N_111ModelledPHID2Ev.exit, label %23

23:                                               ; preds = %_ZN4llvm11SmallVectorIPNS_10BasicBlockELj4EED2Ev.exit.i
  call void @free(ptr noundef %20) #19
  br label %_ZN12_GLOBAL__N_111ModelledPHID2Ev.exit

_ZN12_GLOBAL__N_111ModelledPHID2Ev.exit:          ; preds = %_ZN4llvm11SmallVectorIPNS_10BasicBlockELj4EED2Ev.exit.i, %23
  %24 = getelementptr inbounds i8, ptr %.016, i64 96
  %.not = icmp eq ptr %24, %8
  br i1 %.not, label %._crit_edge, label %.lr.ph, !llvm.loop !224

._crit_edge:                                      ; preds = %_ZN12_GLOBAL__N_111ModelledPHID2Ev.exit, %6
  %25 = getelementptr inbounds nuw i8, ptr %3, i64 48
  %26 = call noundef i64 @_ZNK4llvm15SmallVectorBaseIjE4sizeEv(ptr noundef nonnull align 8 dereferenceable(16) %25) #19
  %27 = load ptr, ptr %25, align 8
  %28 = getelementptr inbounds i8, ptr %3, i64 64
  %29 = icmp eq ptr %27, %28
  br i1 %29, label %_ZN4llvm11SmallVectorIPNS_10BasicBlockELj4EED2Ev.exit.i11, label %30

30:                                               ; preds = %._crit_edge
  call void @free(ptr noundef %27) #19
  br label %_ZN4llvm11SmallVectorIPNS_10BasicBlockELj4EED2Ev.exit.i11

_ZN4llvm11SmallVectorIPNS_10BasicBlockELj4EED2Ev.exit.i11: ; preds = %30, %._crit_edge
  %31 = call noundef i64 @_ZNK4llvm15SmallVectorBaseIjE4sizeEv(ptr noundef nonnull align 8 dereferenceable(16) %3) #19
  %32 = load ptr, ptr %3, align 8
  %33 = getelementptr inbounds i8, ptr %3, i64 16
  %34 = icmp eq ptr %32, %33
  br i1 %34, label %_ZN12_GLOBAL__N_111ModelledPHID2Ev.exit12, label %35

35:                                               ; preds = %_ZN4llvm11SmallVectorIPNS_10BasicBlockELj4EED2Ev.exit.i11
  call void @free(ptr noundef %32) #19
  br label %_ZN12_GLOBAL__N_111ModelledPHID2Ev.exit12

_ZN12_GLOBAL__N_111ModelledPHID2Ev.exit12:        ; preds = %_ZN4llvm11SmallVectorIPNS_10BasicBlockELj4EED2Ev.exit.i11, %35
  %36 = getelementptr inbounds nuw i8, ptr %2, i64 48
  %37 = call noundef i64 @_ZNK4llvm15SmallVectorBaseIjE4sizeEv(ptr noundef nonnull align 8 dereferenceable(16) %36) #19
  %38 = load ptr, ptr %36, align 8
  %39 = getelementptr inbounds i8, ptr %2, i64 64
  %40 = icmp eq ptr %38, %39
  br i1 %40, label %_ZN4llvm11SmallVectorIPNS_10BasicBlockELj4EED2Ev.exit.i13, label %41

41:                                               ; preds = %_ZN12_GLOBAL__N_111ModelledPHID2Ev.exit12
  call void @free(ptr noundef %38) #19
  br label %_ZN4llvm11SmallVectorIPNS_10BasicBlockELj4EED2Ev.exit.i13

_ZN4llvm11SmallVectorIPNS_10BasicBlockELj4EED2Ev.exit.i13: ; preds = %41, %_ZN12_GLOBAL__N_111ModelledPHID2Ev.exit12
  %42 = call noundef i64 @_ZNK4llvm15SmallVectorBaseIjE4sizeEv(ptr noundef nonnull align 8 dereferenceable(16) %2) #19
  %43 = load ptr, ptr %2, align 8
  %44 = getelementptr inbounds i8, ptr %2, i64 16
  %45 = icmp eq ptr %43, %44
  br i1 %45, label %_ZN12_GLOBAL__N_111ModelledPHID2Ev.exit14, label %46

46:                                               ; preds = %_ZN4llvm11SmallVectorIPNS_10BasicBlockELj4EED2Ev.exit.i13
  call void @free(ptr noundef %43) #19
  br label %_ZN12_GLOBAL__N_111ModelledPHID2Ev.exit14

_ZN12_GLOBAL__N_111ModelledPHID2Ev.exit14:        ; preds = %46, %_ZN4llvm11SmallVectorIPNS_10BasicBlockELj4EED2Ev.exit.i13, %1
  ret void
}